target datalayout = "e-m:e-p270:32:32-p271:32:32-p272:64:64-i64:64-i128:128-f80:128-n8:16:32:64-S128"
target triple = "x86_64-unknown-linux-gnu"

%"class.hermes::vm::PinnedHermesValue" = type { %"class.hermes::vm::HermesValue" }
%"class.hermes::vm::HermesValue" = type { i64 }
%"class.facebook::jsi::Pointer" = type { ptr }
%"struct.hermes::bigint::ImmutableBigIntRef" = type { ptr, i32 }
%"class.hermes::vm::GCCell" = type { %union.anon.281 }
%union.anon.281 = type { %"class.hermes::vm::KindAndSize" }
%"class.hermes::vm::KindAndSize" = type { i32 }
%"struct.facebook::hermes::HermesRuntimeImpl::ManagedValue" = type { %"struct.facebook::jsi::Runtime::PointerValue", %"struct.std::atomic.315", %union.anon.317 }
%"struct.facebook::jsi::Runtime::PointerValue" = type { ptr }
%"struct.std::atomic.315" = type { %"struct.std::__atomic_base.316" }
%"struct.std::__atomic_base.316" = type { i32 }
%union.anon.317 = type { %"class.hermes::vm::PinnedHermesValue" }
%"class.hermes::vm::VariableSizeRuntimeCell" = type { %"class.hermes::vm::GCCell" }
%"class.hermes::vm::BigIntPrimitive" = type { %"class.hermes::vm::VariableSizeRuntimeCell", i32 }

; Function Attrs: mustprogress nounwind uwtable
define linkonce_odr hidden noundef i64 @_ZN4llvh15TrailingObjectsIN6hermes2vm15BigIntPrimitiveEJmEE22callNumTrailingObjectsEPKS3_NS_25trailing_objects_internal19TrailingObjectsBase13OverloadTokenIS3_EE(ptr noundef %Obj) #1 comdat align 2 {
entry:
  %Obj.addr = alloca ptr, align 8
  store ptr %Obj, ptr %Obj.addr, align 8
  ret i64 1
}

; Function Attrs: mustprogress nounwind uwtable
define linkonce_odr hidden noundef ptr @_ZN4llvh15TrailingObjectsIN6hermes2vm15BigIntPrimitiveEJmEE22getTrailingObjectsImplEPKS3_NS_25trailing_objects_internal19TrailingObjectsBase13OverloadTokenIS3_EE(ptr noundef %Obj) #1 comdat align 2 {
entry:
  %Obj.addr = alloca ptr, align 8
  store ptr %Obj, ptr %Obj.addr, align 8
  %0 = load ptr, ptr %Obj.addr, align 8
  ret ptr %0
}

; Function Attrs: mustprogress uwtable
define linkonce_odr hidden noundef ptr @_ZN4llvh25trailing_objects_internal19TrailingObjectsImplILi8EN6hermes2vm15BigIntPrimitiveENS_15TrailingObjectsIS4_JmEEES4_JmEE22getTrailingObjectsImplEPKS4_NS0_19TrailingObjectsBase13OverloadTokenImEE(ptr noundef %Obj) #0 comdat align 2 {
entry:
  %Obj.addr = alloca ptr, align 8
  %Ptr = alloca ptr, align 8
  store ptr %Obj, ptr %Obj.addr, align 8
  %0 = load ptr, ptr %Obj.addr, align 8
  %call = call noundef ptr @_ZN4llvh15TrailingObjectsIN6hermes2vm15BigIntPrimitiveEJmEE22getTrailingObjectsImplEPKS3_NS_25trailing_objects_internal19TrailingObjectsBase13OverloadTokenIS3_EE(ptr noundef %0)
  %1 = load ptr, ptr %Obj.addr, align 8
  %call2 = call noundef i64 @_ZN4llvh15TrailingObjectsIN6hermes2vm15BigIntPrimitiveEJmEE22callNumTrailingObjectsEPKS3_NS_25trailing_objects_internal19TrailingObjectsBase13OverloadTokenIS3_EE(ptr noundef %1)
  %add.ptr = getelementptr inbounds %"class.hermes::vm::BigIntPrimitive", ptr %call, i64 %call2
  store ptr %add.ptr, ptr %Ptr, align 8
  %2 = load ptr, ptr %Ptr, align 8
  ret ptr %2
}

; Function Attrs: mustprogress nounwind uwtable
define linkonce_odr hidden void @_ZN4llvh15TrailingObjectsIN6hermes2vm15BigIntPrimitiveEJmEE31verifyTrailingObjectsAssertionsEv() #1 comdat align 2 {
entry:
  ret void
}

; Function Attrs: mustprogress uwtable
define linkonce_odr hidden noundef ptr @_ZNK4llvh15TrailingObjectsIN6hermes2vm15BigIntPrimitiveEJmEE18getTrailingObjectsImEEPKT_v(ptr noundef nonnull align 8 dereferenceable(8) %this) #0 comdat align 2 {
entry:
  %this.addr = alloca ptr, align 8
  store ptr %this, ptr %this.addr, align 8
  %this1 = load ptr, ptr %this.addr, align 8
  call void @_ZN4llvh15TrailingObjectsIN6hermes2vm15BigIntPrimitiveEJmEE31verifyTrailingObjectsAssertionsEv()
  %call = call noundef ptr @_ZN4llvh25trailing_objects_internal19TrailingObjectsImplILi8EN6hermes2vm15BigIntPrimitiveENS_15TrailingObjectsIS4_JmEEES4_JmEE22getTrailingObjectsImplEPKS4_NS0_19TrailingObjectsBase13OverloadTokenImEE(ptr noundef %this1)
  ret ptr %call
}

; Function Attrs: mustprogress uwtable
define linkonce_odr hidden { ptr, i32 } @_ZNK6hermes2vm15BigIntPrimitive21getImmutableRefUnsafeEv(ptr noundef nonnull align 8 dereferenceable(8) %this) #0 comdat align 2 {
entry:
  %retval = alloca %"struct.hermes::bigint::ImmutableBigIntRef", align 8
  %this.addr = alloca ptr, align 8
  store ptr %this, ptr %this.addr, align 8
  %this1 = load ptr, ptr %this.addr, align 8
  %digits = getelementptr inbounds %"struct.hermes::bigint::ImmutableBigIntRef", ptr %retval, i32 0, i32 0
  %call = call noundef ptr @_ZNK4llvh15TrailingObjectsIN6hermes2vm15BigIntPrimitiveEJmEE18getTrailingObjectsImEEPKT_v(ptr noundef nonnull align 8 dereferenceable(8) %this1)
  store ptr %call, ptr %digits, align 8
  %numDigits = getelementptr inbounds %"struct.hermes::bigint::ImmutableBigIntRef", ptr %retval, i32 0, i32 1
  %numDigits2 = getelementptr inbounds %"class.hermes::vm::BigIntPrimitive", ptr %this1, i32 0, i32 1
  %0 = load i32, ptr %numDigits2, align 4
  store i32 %0, ptr %numDigits, align 8
  %1 = load { ptr, i32 }, ptr %retval, align 8
  ret { ptr, i32 } %1
}

; Function Attrs: mustprogress nounwind uwtable
define linkonce_odr hidden noundef ptr @_ZNK6hermes2vm11HermesValue10getPointerEv(ptr noundef nonnull align 8 dereferenceable(8) %this) #1 comdat align 2 {
entry:
  %this.addr = alloca ptr, align 8
  store ptr %this, ptr %this.addr, align 8
  %this1 = load ptr, ptr %this.addr, align 8
  %raw_ = getelementptr inbounds %"class.hermes::vm::HermesValue", ptr %this1, i32 0, i32 0
  %0 = load i64, ptr %raw_, align 8
  %and = and i64 %0, 281474976710655
  %1 = inttoptr i64 %and to ptr
  ret ptr %1
}

; Function Attrs: mustprogress nounwind uwtable
define linkonce_odr hidden noundef nonnull align 8 dereferenceable(8) ptr @_ZNK8facebook6hermes17HermesRuntimeImpl12ManagedValueIN6hermes2vm17PinnedHermesValueEE5valueEv(ptr noundef nonnull align 8 dereferenceable(24) %this) #1 comdat align 2 {
entry:
  %this.addr = alloca ptr, align 8
  store ptr %this, ptr %this.addr, align 8
  %this1 = load ptr, ptr %this.addr, align 8
  %0 = getelementptr inbounds %"struct.facebook::hermes::HermesRuntimeImpl::ManagedValue", ptr %this1, i32 0, i32 2
  ret ptr %0
}

; Function Attrs: mustprogress nounwind uwtable
define linkonce_odr noundef ptr @_ZN8facebook3jsi7Runtime15getPointerValueERKNS0_7PointerE(ptr noundef nonnull align 8 dereferenceable(8) %pointer) #1 comdat align 2 {
entry:
  %pointer.addr = alloca ptr, align 8
  store ptr %pointer, ptr %pointer.addr, align 8
  %0 = load ptr, ptr %pointer.addr, align 8
  %ptr_ = getelementptr inbounds %"class.facebook::jsi::Pointer", ptr %0, i32 0, i32 0
  %1 = load ptr, ptr %ptr_, align 8
  ret ptr %1
}

; Function Attrs: mustprogress uwtable
define linkonce_odr hidden noundef zeroext i1 @_ZN6hermes2vm15BigIntPrimitive33isTruncationToSingleDigitLosslessEb(ptr noundef nonnull align 8 dereferenceable(8) %this, i1 noundef zeroext %signedTruncation) #0 comdat align 2 {
entry:
  %this.addr = alloca ptr, align 8
  %signedTruncation.addr = alloca i8, align 1
  %agg.tmp = alloca %"struct.hermes::bigint::ImmutableBigIntRef", align 8
  store ptr %this, ptr %this.addr, align 8
  %frombool = zext i1 %signedTruncation to i8
  store i8 %frombool, ptr %signedTruncation.addr, align 1
  %this1 = load ptr, ptr %this.addr, align 8
  %call = call { ptr, i32 } @_ZNK6hermes2vm15BigIntPrimitive21getImmutableRefUnsafeEv(ptr noundef nonnull align 8 dereferenceable(8) %this1)
  %0 = getelementptr inbounds { ptr, i32 }, ptr %agg.tmp, i32 0, i32 0
  %1 = extractvalue { ptr, i32 } %call, 0
  store ptr %1, ptr %0, align 8
  %2 = getelementptr inbounds { ptr, i32 }, ptr %agg.tmp, i32 0, i32 1
  %3 = extractvalue { ptr, i32 } %call, 1
  store i32 %3, ptr %2, align 8
  %4 = load i8, ptr %signedTruncation.addr, align 1
  %tobool = trunc i8 %4 to i1
  %5 = getelementptr inbounds { ptr, i32 }, ptr %agg.tmp, i32 0, i32 0
  %6 = load ptr, ptr %5, align 8
  %7 = getelementptr inbounds { ptr, i32 }, ptr %agg.tmp, i32 0, i32 1
  %8 = load i32, ptr %7, align 8
  %call2 = call noundef zeroext i1 @_ZN6hermes6bigint31isSingleDigitTruncationLosslessENS0_18ImmutableBigIntRefEb(ptr %6, i32 %8, i1 noundef zeroext %tobool)
  ret i1 %call2
}

; Function Attrs: mustprogress nounwind uwtable
define linkonce_odr hidden noundef ptr @_ZNK6hermes2vm11HermesValue9getBigIntEv(ptr noundef nonnull align 8 dereferenceable(8) %this) #1 comdat align 2 {
entry:
  %this.addr = alloca ptr, align 8
  store ptr %this, ptr %this.addr, align 8
  %this1 = load ptr, ptr %this.addr, align 8
  %call = call noundef ptr @_ZNK6hermes2vm11HermesValue10getPointerEv(ptr noundef nonnull align 8 dereferenceable(8) %this1)
  ret ptr %call
}

; Function Attrs: mustprogress uwtable
define linkonce_odr hidden noundef nonnull align 8 dereferenceable(8) ptr @_ZN8facebook6hermes17HermesRuntimeImpl3phvERKNS_3jsi7PointerE(ptr noundef nonnull align 8 dereferenceable(8) %pointer) #0 comdat align 2 {
entry:
  %pointer.addr = alloca ptr, align 8
  store ptr %pointer, ptr %pointer.addr, align 8
  %0 = load ptr, ptr %pointer.addr, align 8
  %call = call noundef ptr @_ZN8facebook3jsi7Runtime15getPointerValueERKNS0_7PointerE(ptr noundef nonnull align 8 dereferenceable(8) %0)
  %call1 = call noundef nonnull align 8 dereferenceable(8) ptr @_ZNK8facebook6hermes17HermesRuntimeImpl12ManagedValueIN6hermes2vm17PinnedHermesValueEE5valueEv(ptr noundef nonnull align 8 dereferenceable(24) %call)
  ret ptr %call1
}

; Function Attrs: mustprogress uwtable
define hidden noundef zeroext i1 @_ZN8facebook6hermes17HermesRuntimeImpl13bigintIsInt64ERKNS_3jsi6BigIntE(ptr noundef nonnull align 8 dereferenceable(184) %this, ptr noundef nonnull align 8 dereferenceable(8) %bigint) unnamed_addr #0 align 2 {
entry:
  %this.addr = alloca ptr, align 8
  %bigint.addr = alloca ptr, align 8
  %signedTruncation = alloca i8, align 1
  store ptr %this, ptr %this.addr, align 8
  store ptr %bigint, ptr %bigint.addr, align 8
  store i8 1, ptr %signedTruncation, align 1
  %0 = load ptr, ptr %bigint.addr, align 8
  %call = call noundef nonnull align 8 dereferenceable(8) ptr @_ZN8facebook6hermes17HermesRuntimeImpl3phvERKNS_3jsi7PointerE(ptr noundef nonnull align 8 dereferenceable(8) %0)
  %call2 = call noundef ptr @_ZNK6hermes2vm11HermesValue9getBigIntEv(ptr noundef nonnull align 8 dereferenceable(8) %call)
  %call3 = call noundef zeroext i1 @_ZN6hermes2vm15BigIntPrimitive33isTruncationToSingleDigitLosslessEb(ptr noundef nonnull align 8 dereferenceable(8) %call2, i1 noundef zeroext true)
  ret i1 %call3
}